target datalayout = "e-m:e-p270:32:32-p271:32:32-p272:64:64-i64:64-i128:128-f80:128-n8:16:32:64-S128"
target triple = "x86_64-pc-linux-gnu"

%struct.expert_field = type { i32, i32 }

@ei_gsm_a_bssmap_extraneous_data = internal global %struct.expert_field zeroinitializer, align 4
@.str.137 = private unnamed_addr constant [1 x i8] zeroinitializer, align 1
@ei_gsm_a_bssmap_missing_mandatory_element = internal global %struct.expert_field zeroinitializer, align 4
@.str.139 = private unnamed_addr constant [71 x i8] c"Missing Mandatory element (0x%02x) %s%s, rest of dissection is suspect\00", align 1

; Function Attrs: null_pointer_is_valid sspstrong uwtable
define internal void @bssmap_res_ind(ptr noundef %0, ptr noundef %1, ptr noundef %2, i32 noundef %3, i32 noundef %4) #1 {
  %6 = alloca ptr, align 8
  %7 = alloca ptr, align 8
  %8 = alloca ptr, align 8
  %9 = alloca i32, align 4
  %10 = alloca i32, align 4
  %11 = alloca i32, align 4
  %12 = alloca i32, align 4
  %13 = alloca i32, align 4
  store ptr %0, ptr %6, align 8
  store ptr %1, ptr %7, align 8
  store ptr %2, ptr %8, align 8
  store i32 %3, ptr %9, align 4
  store i32 %4, ptr %10, align 4
  call void @llvm.lifetime.start.p0(i64 4, ptr %11) #5
  call void @llvm.lifetime.start.p0(i64 4, ptr %12) #5
  call void @llvm.lifetime.start.p0(i64 4, ptr %13) #5
  %14 = load i32, ptr %9, align 4
  store i32 %14, ptr %11, align 4
  %15 = load i32, ptr %10, align 4
  store i32 %15, ptr %13, align 4
  %16 = load i32, ptr %13, align 4
  %17 = icmp sgt i32 %16, 0
  br i1 %17, label %18, label %33

18:                                               ; preds = %5
  %19 = load ptr, ptr %6, align 8
  %20 = load ptr, ptr %7, align 8
  %21 = load ptr, ptr %8, align 8
  %22 = load i32, ptr %11, align 4
  %23 = call zeroext i16 @elem_tv(ptr noundef %19, ptr noundef %20, ptr noundef %21, i8 noundef zeroext 28, i32 noundef 0, i32 noundef 28, i32 noundef %22, ptr noundef null)
  %24 = zext i16 %23 to i32
  store i32 %24, ptr %12, align 4
  %25 = icmp ugt i32 %24, 0
  br i1 %25, label %26, label %33

26:                                               ; preds = %18
  %27 = load i32, ptr %12, align 4
  %28 = load i32, ptr %11, align 4
  %29 = add i32 %28, %27
  store i32 %29, ptr %11, align 4
  %30 = load i32, ptr %12, align 4
  %31 = load i32, ptr %13, align 4
  %32 = sub i32 %31, %30
  store i32 %32, ptr %13, align 4
  br label %40

33:                                               ; preds = %18, %5
  %34 = load ptr, ptr %7, align 8
  %35 = load ptr, ptr %8, align 8
  %36 = load ptr, ptr %6, align 8
  %37 = load i32, ptr %11, align 4
  %38 = call ptr @get_gsm_a_msg_string(i32 noundef 0, i32 noundef 28)
  %39 = call ptr (ptr, ptr, ptr, ptr, i32, i32, ptr, ...) @proto_tree_add_expert_format(ptr noundef %34, ptr noundef %35, ptr noundef @ei_gsm_a_bssmap_missing_mandatory_element, ptr noundef %36, i32 noundef %37, i32 noundef 0, ptr noundef @.str.139, i32 noundef 28, ptr noundef %38, ptr noundef @.str.137)
  br label %40

40:                                               ; preds = %33, %26
  %41 = load i32, ptr %13, align 4
  %42 = icmp sgt i32 %41, 0
  br i1 %42, label %43, label %58

43:                                               ; preds = %40
  %44 = load ptr, ptr %6, align 8
  %45 = load ptr, ptr %7, align 8
  %46 = load ptr, ptr %8, align 8
  %47 = load i32, ptr %11, align 4
  %48 = call zeroext i16 @elem_tv(ptr noundef %44, ptr noundef %45, ptr noundef %46, i8 noundef zeroext 3, i32 noundef 0, i32 noundef 3, i32 noundef %47, ptr noundef null)
  %49 = zext i16 %48 to i32
  store i32 %49, ptr %12, align 4
  %50 = icmp ugt i32 %49, 0
  br i1 %50, label %51, label %58

51:                                               ; preds = %43
  %52 = load i32, ptr %12, align 4
  %53 = load i32, ptr %11, align 4
  %54 = add i32 %53, %52
  store i32 %54, ptr %11, align 4
  %55 = load i32, ptr %12, align 4
  %56 = load i32, ptr %13, align 4
  %57 = sub i32 %56, %55
  store i32 %57, ptr %13, align 4
  br label %65

58:                                               ; preds = %43, %40
  %59 = load ptr, ptr %7, align 8
  %60 = load ptr, ptr %8, align 8
  %61 = load ptr, ptr %6, align 8
  %62 = load i32, ptr %11, align 4
  %63 = call ptr @get_gsm_a_msg_string(i32 noundef 0, i32 noundef 3)
  %64 = call ptr (ptr, ptr, ptr, ptr, i32, i32, ptr, ...) @proto_tree_add_expert_format(ptr noundef %59, ptr noundef %60, ptr noundef @ei_gsm_a_bssmap_missing_mandatory_element, ptr noundef %61, i32 noundef %62, i32 noundef 0, ptr noundef @.str.139, i32 noundef 3, ptr noundef %63, ptr noundef @.str.137)
  br label %65

65:                                               ; preds = %58, %51
  %66 = load i32, ptr %13, align 4
  %67 = icmp sgt i32 %66, 0
  br i1 %67, label %68, label %84

68:                                               ; preds = %65
  %69 = load ptr, ptr %6, align 8
  %70 = load ptr, ptr %7, align 8
  %71 = load ptr, ptr %8, align 8
  %72 = load i32, ptr %11, align 4
  %73 = load i32, ptr %13, align 4
  %74 = call zeroext i16 @elem_tlv(ptr noundef %69, ptr noundef %70, ptr noundef %71, i8 noundef zeroext 5, i32 noundef 0, i32 noundef 5, i32 noundef %72, i32 noundef %73, ptr noundef null)
  %75 = zext i16 %74 to i32
  store i32 %75, ptr %12, align 4
  %76 = icmp ugt i32 %75, 0
  br i1 %76, label %77, label %84

77:                                               ; preds = %68
  %78 = load i32, ptr %12, align 4
  %79 = load i32, ptr %11, align 4
  %80 = add i32 %79, %78
  store i32 %80, ptr %11, align 4
  %81 = load i32, ptr %12, align 4
  %82 = load i32, ptr %13, align 4
  %83 = sub i32 %82, %81
  store i32 %83, ptr %13, align 4
  br label %91

84:                                               ; preds = %68, %65
  %85 = load ptr, ptr %7, align 8
  %86 = load ptr, ptr %8, align 8
  %87 = load ptr, ptr %6, align 8
  %88 = load i32, ptr %11, align 4
  %89 = call ptr @get_gsm_a_msg_string(i32 noundef 0, i32 noundef 5)
  %90 = call ptr (ptr, ptr, ptr, ptr, i32, i32, ptr, ...) @proto_tree_add_expert_format(ptr noundef %85, ptr noundef %86, ptr noundef @ei_gsm_a_bssmap_missing_mandatory_element, ptr noundef %87, i32 noundef %88, i32 noundef 0, ptr noundef @.str.139, i32 noundef 5, ptr noundef %89, ptr noundef @.str.137)
  br label %91

91:                                               ; preds = %84, %77
  %92 = load i32, ptr %13, align 4
  %93 = icmp sgt i32 %92, 0
  br i1 %93, label %94, label %109

94:                                               ; preds = %91
  %95 = load ptr, ptr %6, align 8
  %96 = load ptr, ptr %7, align 8
  %97 = load ptr, ptr %8, align 8
  %98 = load i32, ptr %11, align 4
  %99 = call zeroext i16 @elem_tv(ptr noundef %95, ptr noundef %96, ptr noundef %97, i8 noundef zeroext 34, i32 noundef 0, i32 noundef 34, i32 noundef %98, ptr noundef null)
  %100 = zext i16 %99 to i32
  store i32 %100, ptr %12, align 4
  %101 = icmp ugt i32 %100, 0
  br i1 %101, label %102, label %109

102:                                              ; preds = %94
  %103 = load i32, ptr %12, align 4
  %104 = load i32, ptr %11, align 4
  %105 = add i32 %104, %103
  store i32 %105, ptr %11, align 4
  %106 = load i32, ptr %12, align 4
  %107 = load i32, ptr %13, align 4
  %108 = sub i32 %107, %106
  store i32 %108, ptr %13, align 4
  br label %116

109:                                              ; preds = %94, %91
  %110 = load ptr, ptr %7, align 8
  %111 = load ptr, ptr %8, align 8
  %112 = load ptr, ptr %6, align 8
  %113 = load i32, ptr %11, align 4
  %114 = call ptr @get_gsm_a_msg_string(i32 noundef 0, i32 noundef 34)
  %115 = call ptr (ptr, ptr, ptr, ptr, i32, i32, ptr, ...) @proto_tree_add_expert_format(ptr noundef %110, ptr noundef %111, ptr noundef @ei_gsm_a_bssmap_missing_mandatory_element, ptr noundef %112, i32 noundef %113, i32 noundef 0, ptr noundef @.str.139, i32 noundef 34, ptr noundef %114, ptr noundef @.str.137)
  br label %116

116:                                              ; preds = %109, %102
  %117 = load i32, ptr %13, align 4
  %118 = icmp ugt i32 %117, 0
  br i1 %118, label %119, label %131

119:                                              ; preds = %116
  %120 = load ptr, ptr %7, align 8
  %121 = load ptr, ptr %8, align 8
  %122 = load ptr, ptr %6, align 8
  %123 = load i32, ptr %11, align 4
  %124 = load i32, ptr %13, align 4
  %125 = sub i32 %124, 0
  %126 = call ptr @proto_tree_add_expert(ptr noundef %120, ptr noundef %121, ptr noundef @ei_gsm_a_bssmap_extraneous_data, ptr noundef %122, i32 noundef %123, i32 noundef %125)
  %127 = load i32, ptr %13, align 4
  %128 = sub i32 %127, 0
  %129 = load i32, ptr %11, align 4
  %130 = add i32 %129, %128
  store i32 %130, ptr %11, align 4
  br label %131

131:                                              ; preds = %119, %116
  call void @llvm.lifetime.end.p0(i64 4, ptr %13) #5
  call void @llvm.lifetime.end.p0(i64 4, ptr %12) #5
  call void @llvm.lifetime.end.p0(i64 4, ptr %11) #5
  ret void
}